target datalayout = "e-m:e-p270:32:32-p271:32:32-p272:64:64-i64:64-i128:128-f80:128-n8:16:32:64-S128"
target triple = "x86_64-pc-linux-gnu"

%class.mpff_manager = type <{ i32, i32, %class.svector, i32, i8, [3 x i8], %class.id_gen, [4 x %class.svector], %class.svector, %class.mpff, [8 x i8] }>
%class.id_gen = type { i32, %class.svector }
%class.svector = type { %class.vector }
%class.vector = type { ptr }
%class.mpff = type { i32, i32 }

; Function Attrs: mustprogress nounwind uwtable
define linkonce_odr hidden noundef ptr @_ZNK6vectorIjLb0EjE4dataEv(ptr noundef nonnull align 8 dereferenceable(8) %0) #5 comdat align 2 {
  %2 = alloca ptr, align 8
  store ptr %0, ptr %2, align 8, !tbaa !32
  %3 = load ptr, ptr %2, align 8
  %4 = getelementptr inbounds nuw %class.vector, ptr %3, i32 0, i32 0
  %5 = load ptr, ptr %4, align 8, !tbaa !35
  ret ptr %5
}

; Function Attrs: mustprogress nounwind uwtable
define linkonce_odr hidden noundef nonnull align 4 dereferenceable(4) ptr @_ZN6vectorIjLb0EjEixEj(ptr noundef nonnull align 8 dereferenceable(8) %0, i32 noundef %1) #5 comdat align 2 {
  %3 = alloca ptr, align 8
  %4 = alloca i32, align 4
  store ptr %0, ptr %3, align 8, !tbaa !32
  store i32 %1, ptr %4, align 4, !tbaa !8
  %5 = load ptr, ptr %3, align 8
  %6 = getelementptr inbounds nuw %class.vector, ptr %5, i32 0, i32 0
  %7 = load ptr, ptr %6, align 8, !tbaa !35
  %8 = load i32, ptr %4, align 4, !tbaa !8
  %9 = zext i32 %8 to i64
  %10 = getelementptr inbounds nuw i32, ptr %7, i64 %9
  ret ptr %10
}

; Function Attrs: mustprogress uwtable
define linkonce_odr hidden noundef ptr @_ZNK12mpff_manager3sigERK4mpff(ptr noundef nonnull align 8 dereferenceable(89) %0, ptr noundef nonnull align 4 dereferenceable(8) %1) #4 comdat align 2 {
  %3 = alloca ptr, align 8
  %4 = alloca ptr, align 8
  store ptr %0, ptr %3, align 8, !tbaa !3
  store ptr %1, ptr %4, align 8, !tbaa !29
  %5 = load ptr, ptr %3, align 8
  %6 = getelementptr inbounds nuw %class.mpff_manager, ptr %5, i32 0, i32 2
  %7 = call noundef ptr @_ZNK6vectorIjLb0EjE4dataEv(ptr noundef nonnull align 8 dereferenceable(8) %6)
  %8 = load ptr, ptr %4, align 8, !tbaa !29
  %9 = load i32, ptr %8, align 4
  %10 = lshr i32 %9, 1
  %11 = getelementptr inbounds nuw %class.mpff_manager, ptr %5, i32 0, i32 0
  %12 = load i32, ptr %11, align 8, !tbaa !10
  %13 = mul i32 %10, %12
  %14 = zext i32 %13 to i64
  %15 = getelementptr inbounds nuw i32, ptr %7, i64 %14
  ret ptr %15
}

; Function Attrs: mustprogress uwtable
define hidden void @_ZNK12mpff_manager9to_bufferEjRK4mpff(ptr noundef nonnull align 8 dereferenceable(89) %0, i32 noundef %1, ptr noundef nonnull align 4 dereferenceable(8) %2) #4 align 2 {
  %4 = alloca ptr, align 8
  %5 = alloca i32, align 4
  %6 = alloca ptr, align 8
  %7 = alloca ptr, align 8
  %8 = alloca ptr, align 8
  %9 = alloca i32, align 4
  store ptr %0, ptr %4, align 8, !tbaa !3
  store i32 %1, ptr %5, align 4, !tbaa !8
  store ptr %2, ptr %6, align 8, !tbaa !29
  %10 = load ptr, ptr %4, align 8
  call void @llvm.lifetime.start.p0(i64 8, ptr %7) #3
  %11 = getelementptr inbounds nuw %class.mpff_manager, ptr %10, i32 0, i32 7
  %12 = load i32, ptr %5, align 4, !tbaa !8
  %13 = zext i32 %12 to i64
  %14 = getelementptr inbounds nuw [4 x %class.svector], ptr %11, i64 0, i64 %13
  store ptr %14, ptr %7, align 8, !tbaa !24
  call void @llvm.lifetime.start.p0(i64 8, ptr %8) #3
  %15 = load ptr, ptr %6, align 8, !tbaa !29
  %16 = call noundef ptr @_ZNK12mpff_manager3sigERK4mpff(ptr noundef nonnull align 8 dereferenceable(89) %10, ptr noundef nonnull align 4 dereferenceable(8) %15)
  store ptr %16, ptr %8, align 8, !tbaa !36
  call void @llvm.lifetime.start.p0(i64 4, ptr %9) #3
  store i32 0, ptr %9, align 4, !tbaa !8
  br label %17

17:                                               ; preds = %32, %3
  %18 = load i32, ptr %9, align 4, !tbaa !8
  %19 = getelementptr inbounds nuw %class.mpff_manager, ptr %10, i32 0, i32 0
  %20 = load i32, ptr %19, align 8, !tbaa !10
  %21 = icmp ult i32 %18, %20
  br i1 %21, label %23, label %22

22:                                               ; preds = %17
  call void @llvm.lifetime.end.p0(i64 4, ptr %9) #3
  br label %35

23:                                               ; preds = %17
  %24 = load ptr, ptr %8, align 8, !tbaa !36
  %25 = load i32, ptr %9, align 4, !tbaa !8
  %26 = zext i32 %25 to i64
  %27 = getelementptr inbounds nuw i32, ptr %24, i64 %26
  %28 = load i32, ptr %27, align 4, !tbaa !8
  %29 = load ptr, ptr %7, align 8, !tbaa !24
  %30 = load i32, ptr %9, align 4, !tbaa !8
  %31 = call noundef nonnull align 4 dereferenceable(4) ptr @_ZN6vectorIjLb0EjEixEj(ptr noundef nonnull align 8 dereferenceable(8) %29, i32 noundef %30)
  store i32 %28, ptr %31, align 4, !tbaa !8
  br label %32

32:                                               ; preds = %23
  %33 = load i32, ptr %9, align 4, !tbaa !8
  %34 = add i32 %33, 1
  store i32 %34, ptr %9, align 4, !tbaa !8
  br label %17, !llvm.loop !40

35:                                               ; preds = %22
  call void @llvm.lifetime.end.p0(i64 8, ptr %8) #3
  call void @llvm.lifetime.end.p0(i64 8, ptr %7) #3
  ret void
}